; ModuleID = 'source-C-CXX/24/1274.cpp'
source_filename = "source-C-CXX/24/1274.cpp"
target datalayout = "e-m:e-p270:32:32-p271:32:32-p272:64:64-i64:64-f80:128-n8:16:32:64-S128"
target triple = "x86_64-pc-linux-gnu"

%"class.std::ios_base::Init" = type { i8 }
%"class.std::basic_istream" = type { i32 (...)**, i64, %"class.std::basic_ios" }
%"class.std::basic_ios" = type { %"class.std::ios_base", %"class.std::basic_ostream"*, i8, i8, %"class.std::basic_streambuf"*, %"class.std::ctype"*, %"class.std::num_put"*, %"class.std::num_get"* }
%"class.std::ios_base" = type { i32 (...)**, i64, i64, i32, i32, i32, %"struct.std::ios_base::_Callback_list"*, %"struct.std::ios_base::_Words", [8 x %"struct.std::ios_base::_Words"], i32, %"struct.std::ios_base::_Words"*, %"class.std::locale" }
%"struct.std::ios_base::_Callback_list" = type { %"struct.std::ios_base::_Callback_list"*, void (i32, %"class.std::ios_base"*, i32)*, i32, i32 }
%"struct.std::ios_base::_Words" = type { i8*, i64 }
%"class.std::locale" = type { %"class.std::locale::_Impl"* }
%"class.std::locale::_Impl" = type { i32, %"class.std::locale::facet"**, i64, %"class.std::locale::facet"**, i8** }
%"class.std::locale::facet" = type <{ i32 (...)**, i32, [4 x i8] }>
%"class.std::basic_ostream" = type { i32 (...)**, %"class.std::basic_ios" }
%"class.std::basic_streambuf" = type { i32 (...)**, i8*, i8*, i8*, i8*, i8*, i8*, %"class.std::locale" }
%"class.std::ctype" = type <{ %"class.std::locale::facet.base", [4 x i8], %struct.__locale_struct*, i8, [7 x i8], i32*, i32*, i16*, i8, [256 x i8], [256 x i8], i8, [6 x i8] }>
%"class.std::locale::facet.base" = type <{ i32 (...)**, i32 }>
%struct.__locale_struct = type { [13 x %struct.__locale_data*], i16*, i32*, i32*, [13 x i8*] }
%struct.__locale_data = type opaque
%"class.std::num_put" = type { %"class.std::locale::facet.base", [4 x i8] }
%"class.std::num_get" = type { %"class.std::locale::facet.base", [4 x i8] }

@_ZStL8__ioinit = internal global %"class.std::ios_base::Init" zeroinitializer, align 1
@__dso_handle = external hidden global i8
@_ZSt3cin = external global %"class.std::basic_istream", align 8
@_ZSt4cout = external global %"class.std::basic_ostream", align 8
@.str = private unnamed_addr constant [2 x i8] c"2\00", align 1
@llvm.global_ctors = appending global [1 x { i32, void ()*, i8* }] [{ i32, void ()*, i8* } { i32 65535, void ()* @_GLOBAL__sub_I_1274.cpp, i8* null }]

declare void @_ZNSt8ios_base4InitC1Ev(%"class.std::ios_base::Init"* nonnull align 1 dereferenceable(1)) unnamed_addr #0

; Function Attrs: nounwind
declare void @_ZNSt8ios_base4InitD1Ev(%"class.std::ios_base::Init"* nonnull align 1 dereferenceable(1)) unnamed_addr #1

; Function Attrs: nofree nounwind
declare i32 @__cxa_atexit(void (i8*)*, i8*, i8*) local_unnamed_addr #2

; Function Attrs: mustprogress norecurse sspstrong uwtable
define dso_local i32 @main() local_unnamed_addr #3 {
  %1 = alloca i32, align 4
  %2 = alloca [51 x i32], align 16
  %3 = bitcast i32* %1 to i8*
  call void @llvm.lifetime.start.p0i8(i64 4, i8* nonnull %3) #8
  %4 = bitcast [51 x i32]* %2 to i8*
  call void @llvm.lifetime.start.p0i8(i64 204, i8* nonnull %4) #8
  call void @llvm.memset.p0i8.i64(i8* noundef nonnull align 16 dereferenceable(204) %4, i8 0, i64 204, i1 false)
  %5 = call nonnull align 8 dereferenceable(16) %"class.std::basic_istream"* @_ZNSirsERi(%"class.std::basic_istream"* nonnull align 8 dereferenceable(16) @_ZSt3cin, i32* nonnull align 4 dereferenceable(4) %1)
  %6 = getelementptr inbounds [51 x i32], [51 x i32]* %2, i64 0, i64 1
  store i32 1, i32* %6, align 4, !tbaa !5
  %7 = load i32, i32* %1, align 4, !tbaa !5
  %8 = icmp eq i32 %7, 1
  br i1 %8, label %43, label %9

9:                                                ; preds = %0
  %10 = icmp slt i32 %7, 1
  br i1 %10, label %11, label %12

11:                                               ; preds = %86, %9
  br label %91

12:                                               ; preds = %9
  %13 = getelementptr inbounds [51 x i32], [51 x i32]* %2, i64 0, i64 2
  %14 = getelementptr inbounds [51 x i32], [51 x i32]* %2, i64 0, i64 6
  %15 = getelementptr inbounds [51 x i32], [51 x i32]* %2, i64 0, i64 10
  %16 = getelementptr inbounds [51 x i32], [51 x i32]* %2, i64 0, i64 14
  %17 = getelementptr inbounds [51 x i32], [51 x i32]* %2, i64 0, i64 18
  %18 = getelementptr inbounds [51 x i32], [51 x i32]* %2, i64 0, i64 22
  %19 = getelementptr inbounds [51 x i32], [51 x i32]* %2, i64 0, i64 26
  %20 = getelementptr inbounds [51 x i32], [51 x i32]* %2, i64 0, i64 30
  %21 = getelementptr inbounds [51 x i32], [51 x i32]* %2, i64 0, i64 34
  %22 = getelementptr inbounds [51 x i32], [51 x i32]* %2, i64 0, i64 38
  %23 = getelementptr inbounds [51 x i32], [51 x i32]* %2, i64 0, i64 39
  %24 = getelementptr inbounds [51 x i32], [51 x i32]* %2, i64 0, i64 40
  %25 = bitcast i32* %13 to <4 x i32>*
  %26 = bitcast i32* %13 to <4 x i32>*
  %27 = bitcast i32* %14 to <4 x i32>*
  %28 = bitcast i32* %14 to <4 x i32>*
  %29 = bitcast i32* %15 to <4 x i32>*
  %30 = bitcast i32* %15 to <4 x i32>*
  %31 = bitcast i32* %16 to <4 x i32>*
  %32 = bitcast i32* %16 to <4 x i32>*
  %33 = bitcast i32* %17 to <4 x i32>*
  %34 = bitcast i32* %17 to <4 x i32>*
  %35 = bitcast i32* %18 to <4 x i32>*
  %36 = bitcast i32* %18 to <4 x i32>*
  %37 = bitcast i32* %19 to <4 x i32>*
  %38 = bitcast i32* %19 to <4 x i32>*
  %39 = bitcast i32* %20 to <4 x i32>*
  %40 = bitcast i32* %20 to <4 x i32>*
  %41 = bitcast i32* %21 to <4 x i32>*
  %42 = bitcast i32* %21 to <4 x i32>*
  br label %45

43:                                               ; preds = %0
  %44 = call nonnull align 8 dereferenceable(8) %"class.std::basic_ostream"* @_ZSt16__ostream_insertIcSt11char_traitsIcEERSt13basic_ostreamIT_T0_ES6_PKS3_l(%"class.std::basic_ostream"* nonnull align 8 dereferenceable(8) @_ZSt4cout, i8* nonnull getelementptr inbounds ([2 x i8], [2 x i8]* @.str, i64 0, i64 0), i64 1)
  br label %132

45:                                               ; preds = %88, %12
  %46 = phi i32 [ %90, %88 ], [ 1, %12 ]
  %47 = phi i32 [ %89, %88 ], [ 1, %12 ]
  %48 = shl nsw i32 %46, 1
  store i32 %48, i32* %6, align 4, !tbaa !5
  %49 = load <4 x i32>, <4 x i32>* %25, align 8, !tbaa !5
  %50 = shl nsw <4 x i32> %49, <i32 1, i32 1, i32 1, i32 1>
  store <4 x i32> %50, <4 x i32>* %26, align 8, !tbaa !5
  %51 = load <4 x i32>, <4 x i32>* %27, align 8, !tbaa !5
  %52 = shl nsw <4 x i32> %51, <i32 1, i32 1, i32 1, i32 1>
  store <4 x i32> %52, <4 x i32>* %28, align 8, !tbaa !5
  %53 = load <4 x i32>, <4 x i32>* %29, align 8, !tbaa !5
  %54 = shl nsw <4 x i32> %53, <i32 1, i32 1, i32 1, i32 1>
  store <4 x i32> %54, <4 x i32>* %30, align 8, !tbaa !5
  %55 = load <4 x i32>, <4 x i32>* %31, align 8, !tbaa !5
  %56 = shl nsw <4 x i32> %55, <i32 1, i32 1, i32 1, i32 1>
  store <4 x i32> %56, <4 x i32>* %32, align 8, !tbaa !5
  %57 = load <4 x i32>, <4 x i32>* %33, align 8, !tbaa !5
  %58 = shl nsw <4 x i32> %57, <i32 1, i32 1, i32 1, i32 1>
  store <4 x i32> %58, <4 x i32>* %34, align 8, !tbaa !5
  %59 = load <4 x i32>, <4 x i32>* %35, align 8, !tbaa !5
  %60 = shl nsw <4 x i32> %59, <i32 1, i32 1, i32 1, i32 1>
  store <4 x i32> %60, <4 x i32>* %36, align 8, !tbaa !5
  %61 = load <4 x i32>, <4 x i32>* %37, align 8, !tbaa !5
  %62 = shl nsw <4 x i32> %61, <i32 1, i32 1, i32 1, i32 1>
  store <4 x i32> %62, <4 x i32>* %38, align 8, !tbaa !5
  %63 = load <4 x i32>, <4 x i32>* %39, align 8, !tbaa !5
  %64 = shl nsw <4 x i32> %63, <i32 1, i32 1, i32 1, i32 1>
  store <4 x i32> %64, <4 x i32>* %40, align 8, !tbaa !5
  %65 = load <4 x i32>, <4 x i32>* %41, align 8, !tbaa !5
  %66 = shl nsw <4 x i32> %65, <i32 1, i32 1, i32 1, i32 1>
  store <4 x i32> %66, <4 x i32>* %42, align 8, !tbaa !5
  %67 = load i32, i32* %22, align 8, !tbaa !5
  %68 = shl nsw i32 %67, 1
  store i32 %68, i32* %22, align 8, !tbaa !5
  %69 = load i32, i32* %23, align 4, !tbaa !5
  %70 = shl nsw i32 %69, 1
  store i32 %70, i32* %23, align 4, !tbaa !5
  %71 = load i32, i32* %24, align 16, !tbaa !5
  %72 = shl nsw i32 %71, 1
  store i32 %72, i32* %24, align 16, !tbaa !5
  %73 = load i32, i32* %6, align 4, !tbaa !5
  br label %74

74:                                               ; preds = %45, %74
  %75 = phi i32 [ %73, %45 ], [ %82, %74 ]
  %76 = phi i64 [ 2, %45 ], [ %84, %74 ]
  %77 = add nsw i64 %76, -1
  %78 = getelementptr inbounds [51 x i32], [51 x i32]* %2, i64 0, i64 %77
  %79 = sdiv i32 %75, 10
  %80 = getelementptr inbounds [51 x i32], [51 x i32]* %2, i64 0, i64 %76
  %81 = load i32, i32* %80, align 4, !tbaa !5
  %82 = add nsw i32 %81, %79
  store i32 %82, i32* %80, align 4, !tbaa !5
  %83 = srem i32 %75, 10
  store i32 %83, i32* %78, align 4, !tbaa !5
  %84 = add nuw nsw i64 %76, 1
  %85 = icmp eq i64 %84, 51
  br i1 %85, label %86, label %74, !llvm.loop !9

86:                                               ; preds = %74
  %87 = icmp eq i32 %47, %7
  br i1 %87, label %11, label %88, !llvm.loop !11

88:                                               ; preds = %86
  %89 = add nuw i32 %47, 1
  %90 = load i32, i32* %6, align 4, !tbaa !5
  br label %45

91:                                               ; preds = %11, %101
  %92 = phi i64 [ %102, %101 ], [ 50, %11 ]
  %93 = phi i32 [ %97, %101 ], [ 0, %11 ]
  %94 = getelementptr inbounds [51 x i32], [51 x i32]* %2, i64 0, i64 %92
  %95 = load i32, i32* %94, align 4, !tbaa !5
  %96 = icmp eq i32 %95, 0
  %97 = select i1 %96, i32 %93, i32 1
  %98 = icmp eq i32 %97, 1
  br i1 %98, label %99, label %101

99:                                               ; preds = %91
  %100 = call nonnull align 8 dereferenceable(8) %"class.std::basic_ostream"* @_ZNSolsEi(%"class.std::basic_ostream"* nonnull align 8 dereferenceable(8) @_ZSt4cout, i32 %95)
  br label %101

101:                                              ; preds = %91, %99
  %102 = add nsw i64 %92, -1
  %103 = icmp ugt i64 %92, 1
  br i1 %103, label %91, label %104, !llvm.loop !12

104:                                              ; preds = %101
  %105 = load i8*, i8** bitcast (%"class.std::basic_ostream"* @_ZSt4cout to i8**), align 8, !tbaa !13
  %106 = getelementptr i8, i8* %105, i64 -24
  %107 = bitcast i8* %106 to i64*
  %108 = load i64, i64* %107, align 8
  %109 = add nsw i64 %108, 240
  %110 = getelementptr inbounds i8, i8* bitcast (%"class.std::basic_ostream"* @_ZSt4cout to i8*), i64 %109
  %111 = bitcast i8* %110 to %"class.std::ctype"**
  %112 = load %"class.std::ctype"*, %"class.std::ctype"** %111, align 8, !tbaa !15
  %113 = icmp eq %"class.std::ctype"* %112, null
  br i1 %113, label %114, label %115

114:                                              ; preds = %104
  call void @_ZSt16__throw_bad_castv() #9
  unreachable

115:                                              ; preds = %104
  %116 = getelementptr inbounds %"class.std::ctype", %"class.std::ctype"* %112, i64 0, i32 8
  %117 = load i8, i8* %116, align 8, !tbaa !19
  %118 = icmp eq i8 %117, 0
  br i1 %118, label %122, label %119

119:                                              ; preds = %115
  %120 = getelementptr inbounds %"class.std::ctype", %"class.std::ctype"* %112, i64 0, i32 9, i64 10
  %121 = load i8, i8* %120, align 1, !tbaa !21
  br label %128

122:                                              ; preds = %115
  call void @_ZNKSt5ctypeIcE13_M_widen_initEv(%"class.std::ctype"* nonnull align 8 dereferenceable(570) %112)
  %123 = bitcast %"class.std::ctype"* %112 to i8 (%"class.std::ctype"*, i8)***
  %124 = load i8 (%"class.std::ctype"*, i8)**, i8 (%"class.std::ctype"*, i8)*** %123, align 8, !tbaa !13
  %125 = getelementptr inbounds i8 (%"class.std::ctype"*, i8)*, i8 (%"class.std::ctype"*, i8)** %124, i64 6
  %126 = load i8 (%"class.std::ctype"*, i8)*, i8 (%"class.std::ctype"*, i8)** %125, align 8
  %127 = call signext i8 %126(%"class.std::ctype"* nonnull align 8 dereferenceable(570) %112, i8 signext 10)
  br label %128

128:                                              ; preds = %119, %122
  %129 = phi i8 [ %121, %119 ], [ %127, %122 ]
  %130 = call nonnull align 8 dereferenceable(8) %"class.std::basic_ostream"* @_ZNSo3putEc(%"class.std::basic_ostream"* nonnull align 8 dereferenceable(8) @_ZSt4cout, i8 signext %129)
  %131 = call nonnull align 8 dereferenceable(8) %"class.std::basic_ostream"* @_ZNSo5flushEv(%"class.std::basic_ostream"* nonnull align 8 dereferenceable(8) %130)
  br label %132

132:                                              ; preds = %128, %43
  call void @llvm.lifetime.end.p0i8(i64 204, i8* nonnull %4) #8
  call void @llvm.lifetime.end.p0i8(i64 4, i8* nonnull %3) #8
  ret i32 0
}

; Function Attrs: argmemonly mustprogress nofree nosync nounwind willreturn
declare void @llvm.lifetime.start.p0i8(i64 immarg, i8* nocapture) #4

; Function Attrs: argmemonly mustprogress nofree nounwind willreturn writeonly
declare void @llvm.memset.p0i8.i64(i8* nocapture writeonly, i8, i64, i1 immarg) #5

declare nonnull align 8 dereferenceable(16) %"class.std::basic_istream"* @_ZNSirsERi(%"class.std::basic_istream"* nonnull align 8 dereferenceable(16), i32* nonnull align 4 dereferenceable(4)) local_unnamed_addr #0

declare nonnull align 8 dereferenceable(8) %"class.std::basic_ostream"* @_ZNSolsEi(%"class.std::basic_ostream"* nonnull align 8 dereferenceable(8), i32) local_unnamed_addr #0

; Function Attrs: argmemonly mustprogress nofree nosync nounwind willreturn
declare void @llvm.lifetime.end.p0i8(i64 immarg, i8* nocapture) #4

declare nonnull align 8 dereferenceable(8) %"class.std::basic_ostream"* @_ZSt16__ostream_insertIcSt11char_traitsIcEERSt13basic_ostreamIT_T0_ES6_PKS3_l(%"class.std::basic_ostream"* nonnull align 8 dereferenceable(8), i8*, i64) local_unnamed_addr #0

declare nonnull align 8 dereferenceable(8) %"class.std::basic_ostream"* @_ZNSo3putEc(%"class.std::basic_ostream"* nonnull align 8 dereferenceable(8), i8 signext) local_unnamed_addr #0

declare nonnull align 8 dereferenceable(8) %"class.std::basic_ostream"* @_ZNSo5flushEv(%"class.std::basic_ostream"* nonnull align 8 dereferenceable(8)) local_unnamed_addr #0

; Function Attrs: noreturn
declare void @_ZSt16__throw_bad_castv() local_unnamed_addr #6

declare void @_ZNKSt5ctypeIcE13_M_widen_initEv(%"class.std::ctype"* nonnull align 8 dereferenceable(570)) local_unnamed_addr #0

; Function Attrs: sspstrong uwtable
define internal void @_GLOBAL__sub_I_1274.cpp() #7 section ".text.startup" {
  tail call void @_ZNSt8ios_base4InitC1Ev(%"class.std::ios_base::Init"* nonnull align 1 dereferenceable(1) @_ZStL8__ioinit)
  %1 = tail call i32 @__cxa_atexit(void (i8*)* bitcast (void (%"class.std::ios_base::Init"*)* @_ZNSt8ios_base4InitD1Ev to void (i8*)*), i8* getelementptr inbounds (%"class.std::ios_base::Init", %"class.std::ios_base::Init"* @_ZStL8__ioinit, i64 0, i32 0), i8* nonnull @__dso_handle) #8
  ret void
}


!llvm.module.flags = !{!0, !1, !2, !3}
!llvm.ident = !{!4}

!0 = !{i32 1, !"wchar_size", i32 4}
!1 = !{i32 7, !"PIC Level", i32 2}
!2 = !{i32 7, !"PIE Level", i32 2}
!3 = !{i32 7, !"uwtable", i32 1}
!4 = !{!"clang version 13.0.0"}
!5 = !{!6, !6, i64 0}
!6 = !{!"int", !7, i64 0}
!7 = !{!"omnipotent char", !8, i64 0}
!8 = !{!"Simple C++ TBAA"}
!9 = distinct !{!9, !10}
!10 = !{!"llvm.loop.mustprogress"}
!11 = distinct !{!11, !10}
!12 = distinct !{!12, !10}
!13 = !{!14, !14, i64 0}
!14 = !{!"vtable pointer", !8, i64 0}
!15 = !{!16, !17, i64 240}
!16 = !{!"_ZTSSt9basic_iosIcSt11char_traitsIcEE", !17, i64 216, !7, i64 224, !18, i64 225, !17, i64 232, !17, i64 240, !17, i64 248, !17, i64 256}
!17 = !{!"any pointer", !7, i64 0}
!18 = !{!"bool", !7, i64 0}
!19 = !{!20, !7, i64 56}
!20 = !{!"_ZTSSt5ctypeIcE", !17, i64 16, !18, i64 24, !17, i64 32, !17, i64 40, !17, i64 48, !7, i64 56, !7, i64 57, !7, i64 313, !7, i64 569}
!21 = !{!7, !7, i64 0}
